target datalayout = "e-m:e-p270:32:32-p271:32:32-p272:64:64-i64:64-i128:128-f80:128-n8:16:32:64-S128"
target triple = "x86_64-pc-linux-gnu"

%struct.cl_cvd = type { ptr, i32, i32, i32, ptr, ptr, ptr, i32 }

@.str = private unnamed_addr constant [12 x i8] c"ClamAV-VDB:\00", align 1
@.str.1 = private unnamed_addr constant [30 x i8] c"cli_cvdparse: Not a CVD file\0A\00", align 1
@.str.2 = private unnamed_addr constant [44 x i8] c"cl_cvdparse: Can't allocate memory for cvd\0A\00", align 1
@.str.3 = private unnamed_addr constant [2 x i8] c":\00", align 1
@.str.4 = private unnamed_addr constant [45 x i8] c"cli_cvdparse: Can't parse the creation time\0A\00", align 1
@.str.5 = private unnamed_addr constant [46 x i8] c"cli_cvdparse: Can't parse the version number\0A\00", align 1
@.str.6 = private unnamed_addr constant [52 x i8] c"cli_cvdparse: Can't parse the number of signatures\0A\00", align 1
@.str.7 = private unnamed_addr constant [51 x i8] c"cli_cvdparse: Can't parse the functionality level\0A\00", align 1
@.str.8 = private unnamed_addr constant [44 x i8] c"cli_cvdparse: Can't parse the MD5 checksum\0A\00", align 1
@.str.9 = private unnamed_addr constant [49 x i8] c"cli_cvdparse: Can't parse the digital signature\0A\00", align 1
@.str.10 = private unnamed_addr constant [44 x i8] c"cli_cvdparse: Can't parse the builder name\0A\00", align 1
@.str.11 = private unnamed_addr constant [61 x i8] c"cli_cvdparse: No creation time in seconds (old file format)\0A\00", align 1

; Function Attrs: inlinehint nounwind willreturn memory(read) uwtable
define available_externally i32 @atoi(ptr noundef nonnull %0) #6 {
  %2 = alloca ptr, align 8
  store ptr %0, ptr %2, align 8, !tbaa !3
  %3 = load ptr, ptr %2, align 8, !tbaa !3
  %4 = call i64 @strtol(ptr noundef %3, ptr noundef null, i32 noundef 10) #11
  %5 = trunc i64 %4 to i32
  ret i32 %5
}

; Function Attrs: nounwind uwtable
define ptr @cl_cvdparse(ptr noundef %0) #0 {
  %2 = alloca ptr, align 8
  %3 = alloca ptr, align 8
  %4 = alloca ptr, align 8
  %5 = alloca ptr, align 8
  %6 = alloca i32, align 4
  store ptr %0, ptr %3, align 8, !tbaa !3
  call void @llvm.lifetime.start.p0(i64 8, ptr %4) #11
  call void @llvm.lifetime.start.p0(i64 8, ptr %5) #11
  %7 = load ptr, ptr %3, align 8, !tbaa !3
  %8 = call i32 @strncmp(ptr noundef %7, ptr noundef @.str, i64 noundef 11) #12
  %9 = icmp ne i32 %8, 0
  br i1 %9, label %10, label %11

10:                                               ; preds = %1
  call void (ptr, ...) @cli_errmsg(ptr noundef @.str.1)
  store ptr null, ptr %2, align 8
  store i32 1, ptr %6, align 4
  br label %122

11:                                               ; preds = %1
  %12 = call noalias ptr @malloc(i64 noundef 56) #13
  store ptr %12, ptr %4, align 8, !tbaa !8
  %13 = icmp ne ptr %12, null
  br i1 %13, label %15, label %14

14:                                               ; preds = %11
  call void (ptr, ...) @cli_errmsg(ptr noundef @.str.2)
  store ptr null, ptr %2, align 8
  store i32 1, ptr %6, align 4
  br label %122

15:                                               ; preds = %11
  %16 = load ptr, ptr %3, align 8, !tbaa !3
  %17 = call ptr @cli_strtok(ptr noundef %16, i32 noundef 1, ptr noundef @.str.3)
  %18 = load ptr, ptr %4, align 8, !tbaa !8
  %19 = getelementptr inbounds nuw %struct.cl_cvd, ptr %18, i32 0, i32 0
  store ptr %17, ptr %19, align 8, !tbaa !10
  %20 = icmp ne ptr %17, null
  br i1 %20, label %23, label %21

21:                                               ; preds = %15
  call void (ptr, ...) @cli_errmsg(ptr noundef @.str.4)
  %22 = load ptr, ptr %4, align 8, !tbaa !8
  call void @free(ptr noundef %22) #11
  store ptr null, ptr %2, align 8
  store i32 1, ptr %6, align 4
  br label %122

23:                                               ; preds = %15
  %24 = load ptr, ptr %3, align 8, !tbaa !3
  %25 = call ptr @cli_strtok(ptr noundef %24, i32 noundef 2, ptr noundef @.str.3)
  store ptr %25, ptr %5, align 8, !tbaa !3
  %26 = icmp ne ptr %25, null
  br i1 %26, label %32, label %27

27:                                               ; preds = %23
  call void (ptr, ...) @cli_errmsg(ptr noundef @.str.5)
  %28 = load ptr, ptr %4, align 8, !tbaa !8
  %29 = getelementptr inbounds nuw %struct.cl_cvd, ptr %28, i32 0, i32 0
  %30 = load ptr, ptr %29, align 8, !tbaa !10
  call void @free(ptr noundef %30) #11
  %31 = load ptr, ptr %4, align 8, !tbaa !8
  call void @free(ptr noundef %31) #11
  store ptr null, ptr %2, align 8
  store i32 1, ptr %6, align 4
  br label %122

32:                                               ; preds = %23
  %33 = load ptr, ptr %5, align 8, !tbaa !3
  %34 = call i32 @atoi(ptr noundef %33) #12
  %35 = load ptr, ptr %4, align 8, !tbaa !8
  %36 = getelementptr inbounds nuw %struct.cl_cvd, ptr %35, i32 0, i32 1
  store i32 %34, ptr %36, align 8, !tbaa !13
  %37 = load ptr, ptr %5, align 8, !tbaa !3
  call void @free(ptr noundef %37) #11
  %38 = load ptr, ptr %3, align 8, !tbaa !3
  %39 = call ptr @cli_strtok(ptr noundef %38, i32 noundef 3, ptr noundef @.str.3)
  store ptr %39, ptr %5, align 8, !tbaa !3
  %40 = icmp ne ptr %39, null
  br i1 %40, label %46, label %41

41:                                               ; preds = %32
  call void (ptr, ...) @cli_errmsg(ptr noundef @.str.6)
  %42 = load ptr, ptr %4, align 8, !tbaa !8
  %43 = getelementptr inbounds nuw %struct.cl_cvd, ptr %42, i32 0, i32 0
  %44 = load ptr, ptr %43, align 8, !tbaa !10
  call void @free(ptr noundef %44) #11
  %45 = load ptr, ptr %4, align 8, !tbaa !8
  call void @free(ptr noundef %45) #11
  store ptr null, ptr %2, align 8
  store i32 1, ptr %6, align 4
  br label %122

46:                                               ; preds = %32
  %47 = load ptr, ptr %5, align 8, !tbaa !3
  %48 = call i32 @atoi(ptr noundef %47) #12
  %49 = load ptr, ptr %4, align 8, !tbaa !8
  %50 = getelementptr inbounds nuw %struct.cl_cvd, ptr %49, i32 0, i32 2
  store i32 %48, ptr %50, align 4, !tbaa !14
  %51 = load ptr, ptr %5, align 8, !tbaa !3
  call void @free(ptr noundef %51) #11
  %52 = load ptr, ptr %3, align 8, !tbaa !3
  %53 = call ptr @cli_strtok(ptr noundef %52, i32 noundef 4, ptr noundef @.str.3)
  store ptr %53, ptr %5, align 8, !tbaa !3
  %54 = icmp ne ptr %53, null
  br i1 %54, label %60, label %55

55:                                               ; preds = %46
  call void (ptr, ...) @cli_errmsg(ptr noundef @.str.7)
  %56 = load ptr, ptr %4, align 8, !tbaa !8
  %57 = getelementptr inbounds nuw %struct.cl_cvd, ptr %56, i32 0, i32 0
  %58 = load ptr, ptr %57, align 8, !tbaa !10
  call void @free(ptr noundef %58) #11
  %59 = load ptr, ptr %4, align 8, !tbaa !8
  call void @free(ptr noundef %59) #11
  store ptr null, ptr %2, align 8
  store i32 1, ptr %6, align 4
  br label %122

60:                                               ; preds = %46
  %61 = load ptr, ptr %5, align 8, !tbaa !3
  %62 = call i32 @atoi(ptr noundef %61) #12
  %63 = load ptr, ptr %4, align 8, !tbaa !8
  %64 = getelementptr inbounds nuw %struct.cl_cvd, ptr %63, i32 0, i32 3
  store i32 %62, ptr %64, align 8, !tbaa !15
  %65 = load ptr, ptr %5, align 8, !tbaa !3
  call void @free(ptr noundef %65) #11
  %66 = load ptr, ptr %3, align 8, !tbaa !3
  %67 = call ptr @cli_strtok(ptr noundef %66, i32 noundef 5, ptr noundef @.str.3)
  %68 = load ptr, ptr %4, align 8, !tbaa !8
  %69 = getelementptr inbounds nuw %struct.cl_cvd, ptr %68, i32 0, i32 4
  store ptr %67, ptr %69, align 8, !tbaa !16
  %70 = icmp ne ptr %67, null
  br i1 %70, label %76, label %71

71:                                               ; preds = %60
  call void (ptr, ...) @cli_errmsg(ptr noundef @.str.8)
  %72 = load ptr, ptr %4, align 8, !tbaa !8
  %73 = getelementptr inbounds nuw %struct.cl_cvd, ptr %72, i32 0, i32 0
  %74 = load ptr, ptr %73, align 8, !tbaa !10
  call void @free(ptr noundef %74) #11
  %75 = load ptr, ptr %4, align 8, !tbaa !8
  call void @free(ptr noundef %75) #11
  store ptr null, ptr %2, align 8
  store i32 1, ptr %6, align 4
  br label %122

76:                                               ; preds = %60
  %77 = load ptr, ptr %3, align 8, !tbaa !3
  %78 = call ptr @cli_strtok(ptr noundef %77, i32 noundef 6, ptr noundef @.str.3)
  %79 = load ptr, ptr %4, align 8, !tbaa !8
  %80 = getelementptr inbounds nuw %struct.cl_cvd, ptr %79, i32 0, i32 5
  store ptr %78, ptr %80, align 8, !tbaa !17
  %81 = icmp ne ptr %78, null
  br i1 %81, label %90, label %82

82:                                               ; preds = %76
  call void (ptr, ...) @cli_errmsg(ptr noundef @.str.9)
  %83 = load ptr, ptr %4, align 8, !tbaa !8
  %84 = getelementptr inbounds nuw %struct.cl_cvd, ptr %83, i32 0, i32 0
  %85 = load ptr, ptr %84, align 8, !tbaa !10
  call void @free(ptr noundef %85) #11
  %86 = load ptr, ptr %4, align 8, !tbaa !8
  %87 = getelementptr inbounds nuw %struct.cl_cvd, ptr %86, i32 0, i32 4
  %88 = load ptr, ptr %87, align 8, !tbaa !16
  call void @free(ptr noundef %88) #11
  %89 = load ptr, ptr %4, align 8, !tbaa !8
  call void @free(ptr noundef %89) #11
  store ptr null, ptr %2, align 8
  store i32 1, ptr %6, align 4
  br label %122

90:                                               ; preds = %76
  %91 = load ptr, ptr %3, align 8, !tbaa !3
  %92 = call ptr @cli_strtok(ptr noundef %91, i32 noundef 7, ptr noundef @.str.3)
  %93 = load ptr, ptr %4, align 8, !tbaa !8
  %94 = getelementptr inbounds nuw %struct.cl_cvd, ptr %93, i32 0, i32 6
  store ptr %92, ptr %94, align 8, !tbaa !18
  %95 = icmp ne ptr %92, null
  br i1 %95, label %107, label %96

96:                                               ; preds = %90
  call void (ptr, ...) @cli_errmsg(ptr noundef @.str.10)
  %97 = load ptr, ptr %4, align 8, !tbaa !8
  %98 = getelementptr inbounds nuw %struct.cl_cvd, ptr %97, i32 0, i32 0
  %99 = load ptr, ptr %98, align 8, !tbaa !10
  call void @free(ptr noundef %99) #11
  %100 = load ptr, ptr %4, align 8, !tbaa !8
  %101 = getelementptr inbounds nuw %struct.cl_cvd, ptr %100, i32 0, i32 4
  %102 = load ptr, ptr %101, align 8, !tbaa !16
  call void @free(ptr noundef %102) #11
  %103 = load ptr, ptr %4, align 8, !tbaa !8
  %104 = getelementptr inbounds nuw %struct.cl_cvd, ptr %103, i32 0, i32 5
  %105 = load ptr, ptr %104, align 8, !tbaa !17
  call void @free(ptr noundef %105) #11
  %106 = load ptr, ptr %4, align 8, !tbaa !8
  call void @free(ptr noundef %106) #11
  store ptr null, ptr %2, align 8
  store i32 1, ptr %6, align 4
  br label %122

107:                                              ; preds = %90
  %108 = load ptr, ptr %3, align 8, !tbaa !3
  %109 = call ptr @cli_strtok(ptr noundef %108, i32 noundef 8, ptr noundef @.str.3)
  store ptr %109, ptr %5, align 8, !tbaa !3
  %110 = icmp ne ptr %109, null
  br i1 %110, label %111, label %117

111:                                              ; preds = %107
  %112 = load ptr, ptr %5, align 8, !tbaa !3
  %113 = call i32 @atoi(ptr noundef %112) #12
  %114 = load ptr, ptr %4, align 8, !tbaa !8
  %115 = getelementptr inbounds nuw %struct.cl_cvd, ptr %114, i32 0, i32 7
  store i32 %113, ptr %115, align 8, !tbaa !19
  %116 = load ptr, ptr %5, align 8, !tbaa !3
  call void @free(ptr noundef %116) #11
  br label %120

117:                                              ; preds = %107
  call void (ptr, ...) @cli_dbgmsg(ptr noundef @.str.11)
  %118 = load ptr, ptr %4, align 8, !tbaa !8
  %119 = getelementptr inbounds nuw %struct.cl_cvd, ptr %118, i32 0, i32 7
  store i32 0, ptr %119, align 8, !tbaa !19
  br label %120

120:                                              ; preds = %117, %111
  %121 = load ptr, ptr %4, align 8, !tbaa !8
  store ptr %121, ptr %2, align 8
  store i32 1, ptr %6, align 4
  br label %122

122:                                              ; preds = %120, %96, %82, %71, %55, %41, %27, %21, %14, %10
  call void @llvm.lifetime.end.p0(i64 8, ptr %5) #11
  call void @llvm.lifetime.end.p0(i64 8, ptr %4) #11
  %123 = load ptr, ptr %2, align 8
  ret ptr %123
}