; Function Attrs: nounwind uwtable
define noalias noundef ptr @cl_cvdparse(ptr noundef %0) local_unnamed_addr #0 {
  %2 = tail call i32 @strncmp(ptr noundef nonnull dereferenceable(1) %0, ptr noundef nonnull dereferenceable(12) @.str, i64 noundef 11) #18
  %.not = icmp eq i32 %2, 0
  br i1 %.not, label %4, label %3

3:                                                ; preds = %1
  tail call void (ptr, ...) @cli_errmsg(ptr noundef nonnull @.str.1) #19
  br label %48

4:                                                ; preds = %1
  %5 = tail call noalias dereferenceable_or_null(56) ptr @malloc(i64 noundef 56) #20
  %.not49 = icmp eq ptr %5, null
  br i1 %.not49, label %6, label %7

6:                                                ; preds = %4
  tail call void (ptr, ...) @cli_errmsg(ptr noundef nonnull @.str.2) #19
  br label %48

7:                                                ; preds = %4
  %8 = tail call ptr @cli_strtok(ptr noundef nonnull %0, i32 noundef 1, ptr noundef nonnull @.str.3) #19
  store ptr %8, ptr %5, align 8, !tbaa !3
  %.not50 = icmp eq ptr %8, null
  br i1 %.not50, label %9, label %10

9:                                                ; preds = %7
  tail call void (ptr, ...) @cli_errmsg(ptr noundef nonnull @.str.4) #19
  tail call void @free(ptr noundef nonnull %5) #19
  br label %48

10:                                               ; preds = %7
  %11 = tail call ptr @cli_strtok(ptr noundef nonnull %0, i32 noundef 2, ptr noundef nonnull @.str.3) #19
  %.not51 = icmp eq ptr %11, null
  br i1 %.not51, label %12, label %13

12:                                               ; preds = %10
  tail call void (ptr, ...) @cli_errmsg(ptr noundef nonnull @.str.5) #19
  tail call void @free(ptr noundef nonnull %8) #19
  tail call void @free(ptr noundef nonnull %5) #19
  br label %48

13:                                               ; preds = %10
  %14 = tail call i64 @strtol(ptr noundef nonnull captures(none) %11, ptr noundef null, i32 noundef 10) #19
  %15 = trunc i64 %14 to i32
  %16 = getelementptr inbounds nuw i8, ptr %5, i64 8
  store i32 %15, ptr %16, align 8, !tbaa !10
  tail call void @free(ptr noundef nonnull %11) #19
  %17 = tail call ptr @cli_strtok(ptr noundef nonnull %0, i32 noundef 3, ptr noundef nonnull @.str.3) #19
  %.not52 = icmp eq ptr %17, null
  br i1 %.not52, label %18, label %19

18:                                               ; preds = %13
  tail call void (ptr, ...) @cli_errmsg(ptr noundef nonnull @.str.6) #19
  tail call void @free(ptr noundef nonnull %8) #19
  tail call void @free(ptr noundef nonnull %5) #19
  br label %48

19:                                               ; preds = %13
  %20 = tail call i64 @strtol(ptr noundef nonnull captures(none) %17, ptr noundef null, i32 noundef 10) #19
  %21 = trunc i64 %20 to i32
  %22 = getelementptr inbounds nuw i8, ptr %5, i64 12
  store i32 %21, ptr %22, align 4, !tbaa !11
  tail call void @free(ptr noundef nonnull %17) #19
  %23 = tail call ptr @cli_strtok(ptr noundef nonnull %0, i32 noundef 4, ptr noundef nonnull @.str.3) #19
  %.not53 = icmp eq ptr %23, null
  br i1 %.not53, label %24, label %25

24:                                               ; preds = %19
  tail call void (ptr, ...) @cli_errmsg(ptr noundef nonnull @.str.7) #19
  tail call void @free(ptr noundef nonnull %8) #19
  tail call void @free(ptr noundef nonnull %5) #19
  br label %48

25:                                               ; preds = %19
  %26 = tail call i64 @strtol(ptr noundef nonnull captures(none) %23, ptr noundef null, i32 noundef 10) #19
  %27 = trunc i64 %26 to i32
  %28 = getelementptr inbounds nuw i8, ptr %5, i64 16
  store i32 %27, ptr %28, align 8, !tbaa !12
  tail call void @free(ptr noundef nonnull %23) #19
  %29 = tail call ptr @cli_strtok(ptr noundef nonnull %0, i32 noundef 5, ptr noundef nonnull @.str.3) #19
  %30 = getelementptr inbounds nuw i8, ptr %5, i64 24
  store ptr %29, ptr %30, align 8, !tbaa !13
  %.not54 = icmp eq ptr %29, null
  br i1 %.not54, label %31, label %32

31:                                               ; preds = %25
  tail call void (ptr, ...) @cli_errmsg(ptr noundef nonnull @.str.8) #19
  tail call void @free(ptr noundef nonnull %8) #19
  tail call void @free(ptr noundef nonnull %5) #19
  br label %48

32:                                               ; preds = %25
  %33 = tail call ptr @cli_strtok(ptr noundef nonnull %0, i32 noundef 6, ptr noundef nonnull @.str.3) #19
  %34 = getelementptr inbounds nuw i8, ptr %5, i64 32
  store ptr %33, ptr %34, align 8, !tbaa !14
  %.not55 = icmp eq ptr %33, null
  br i1 %.not55, label %35, label %36

35:                                               ; preds = %32
  tail call void (ptr, ...) @cli_errmsg(ptr noundef nonnull @.str.9) #19
  tail call void @free(ptr noundef nonnull %8) #19
  tail call void @free(ptr noundef nonnull %29) #19
  tail call void @free(ptr noundef nonnull %5) #19
  br label %48

36:                                               ; preds = %32
  %37 = tail call ptr @cli_strtok(ptr noundef nonnull %0, i32 noundef 7, ptr noundef nonnull @.str.3) #19
  %38 = getelementptr inbounds nuw i8, ptr %5, i64 40
  store ptr %37, ptr %38, align 8, !tbaa !15
  %.not56 = icmp eq ptr %37, null
  br i1 %.not56, label %39, label %40

39:                                               ; preds = %36
  tail call void (ptr, ...) @cli_errmsg(ptr noundef nonnull @.str.10) #19
  tail call void @free(ptr noundef nonnull %8) #19
  tail call void @free(ptr noundef nonnull %29) #19
  tail call void @free(ptr noundef nonnull %33) #19
  tail call void @free(ptr noundef nonnull %5) #19
  br label %48

40:                                               ; preds = %36
  %41 = tail call ptr @cli_strtok(ptr noundef nonnull %0, i32 noundef 8, ptr noundef nonnull @.str.3) #19
  %.not57 = icmp eq ptr %41, null
  br i1 %.not57, label %46, label %42

42:                                               ; preds = %40
  %43 = tail call i64 @strtol(ptr noundef nonnull captures(none) %41, ptr noundef null, i32 noundef 10) #19
  %44 = trunc i64 %43 to i32
  %45 = getelementptr inbounds nuw i8, ptr %5, i64 48
  store i32 %44, ptr %45, align 8, !tbaa !16
  tail call void @free(ptr noundef nonnull %41) #19
  br label %48

46:                                               ; preds = %40
  tail call void (ptr, ...) @cli_dbgmsg(ptr noundef nonnull @.str.11) #19
  %47 = getelementptr inbounds nuw i8, ptr %5, i64 48
  store i32 0, ptr %47, align 8, !tbaa !16
  br label %48

48:                                               ; preds = %42, %46, %39, %35, %31, %24, %18, %12, %9, %6, %3
  %.0 = phi ptr [ null, %3 ], [ null, %39 ], [ null, %35 ], [ null, %31 ], [ null, %24 ], [ null, %18 ], [ null, %12 ], [ null, %9 ], [ null, %6 ], [ %5, %46 ], [ %5, %42 ]
  ret ptr %.0
}